target datalayout = "e-m:e-p270:32:32-p271:32:32-p272:64:64-i64:64-i128:128-f80:128-n8:16:32:64-S128"
target triple = "x86_64-pc-linux-gnu"

%struct.Gia_Man_t_ = type { ptr, ptr, i32, i32, i32, i32, ptr, ptr, i32, i32, i32, ptr, ptr, %struct.Vec_Int_t_, %struct.Vec_Int_t_, i32, i32, i32, %struct.Vec_Int_t_, ptr, ptr, ptr, i32, i32, i32, i32, ptr, ptr, ptr, ptr, ptr, i32, i32, ptr, i32, ptr, ptr, ptr, ptr, ptr, ptr, ptr, ptr, ptr, ptr, ptr, ptr, ptr, ptr, ptr, ptr, ptr, ptr, %struct.Vec_Int_t_, %struct.Vec_Int_t_, ptr, ptr, ptr, ptr, ptr, ptr, ptr, ptr, ptr, ptr, ptr, ptr, ptr, ptr, ptr, ptr, ptr, ptr, ptr, ptr, ptr, i32, float, float, ptr, ptr, i32, ptr, ptr, ptr, ptr, ptr, ptr, ptr, ptr, ptr, ptr, ptr, ptr, ptr, ptr, ptr, i64, i64, ptr, ptr, i32, i32, i32, i32, i32, i32, i32, i32, i32, i32, i32, i32, ptr, ptr, ptr, ptr, ptr, ptr, ptr, ptr, i32, i32, i32, ptr, i32, i32, ptr, ptr, ptr, ptr, ptr, ptr, i32, i32, ptr, %struct.Vec_Int_t_, %struct.Vec_Int_t_, %struct.Vec_Int_t_, ptr, ptr, ptr }
%struct.Vec_Int_t_ = type { i32, i32, ptr }

; Function Attrs: nounwind uwtable
define internal void @Vec_IntGrow(ptr noundef %0, i32 noundef %1) #0 {
  %3 = alloca ptr, align 8
  %4 = alloca i32, align 4
  store ptr %0, ptr %3, align 8
  store i32 %1, ptr %4, align 4
  %5 = load ptr, ptr %3, align 8
  %6 = getelementptr inbounds %struct.Vec_Int_t_, ptr %5, i32 0, i32 0
  %7 = load i32, ptr %6, align 8
  %8 = load i32, ptr %4, align 4
  %9 = icmp sge i32 %7, %8
  br i1 %9, label %10, label %11

10:                                               ; preds = %2
  br label %36

11:                                               ; preds = %2
  %12 = load ptr, ptr %3, align 8
  %13 = getelementptr inbounds %struct.Vec_Int_t_, ptr %12, i32 0, i32 2
  %14 = load ptr, ptr %13, align 8
  %15 = icmp ne ptr %14, null
  br i1 %15, label %16, label %24

16:                                               ; preds = %11
  %17 = load ptr, ptr %3, align 8
  %18 = getelementptr inbounds %struct.Vec_Int_t_, ptr %17, i32 0, i32 2
  %19 = load ptr, ptr %18, align 8
  %20 = load i32, ptr %4, align 4
  %21 = sext i32 %20 to i64
  %22 = mul i64 4, %21
  %23 = call ptr @realloc(ptr noundef %19, i64 noundef %22) #13
  br label %29

24:                                               ; preds = %11
  %25 = load i32, ptr %4, align 4
  %26 = sext i32 %25 to i64
  %27 = mul i64 4, %26
  %28 = call noalias ptr @malloc(i64 noundef %27) #11
  br label %29

29:                                               ; preds = %24, %16
  %30 = phi ptr [ %23, %16 ], [ %28, %24 ]
  %31 = load ptr, ptr %3, align 8
  %32 = getelementptr inbounds %struct.Vec_Int_t_, ptr %31, i32 0, i32 2
  store ptr %30, ptr %32, align 8
  %33 = load i32, ptr %4, align 4
  %34 = load ptr, ptr %3, align 8
  %35 = getelementptr inbounds %struct.Vec_Int_t_, ptr %34, i32 0, i32 0
  store i32 %33, ptr %35, align 8
  br label %36

36:                                               ; preds = %29, %10
  ret void
}

; Function Attrs: nounwind uwtable
define internal void @Vec_IntPush(ptr noundef %0, i32 noundef %1) #0 {
  %3 = alloca ptr, align 8
  %4 = alloca i32, align 4
  store ptr %0, ptr %3, align 8
  store i32 %1, ptr %4, align 4
  %5 = load ptr, ptr %3, align 8
  %6 = getelementptr inbounds %struct.Vec_Int_t_, ptr %5, i32 0, i32 1
  %7 = load i32, ptr %6, align 4
  %8 = load ptr, ptr %3, align 8
  %9 = getelementptr inbounds %struct.Vec_Int_t_, ptr %8, i32 0, i32 0
  %10 = load i32, ptr %9, align 8
  %11 = icmp eq i32 %7, %10
  br i1 %11, label %12, label %26

12:                                               ; preds = %2
  %13 = load ptr, ptr %3, align 8
  %14 = getelementptr inbounds %struct.Vec_Int_t_, ptr %13, i32 0, i32 0
  %15 = load i32, ptr %14, align 8
  %16 = icmp slt i32 %15, 16
  br i1 %16, label %17, label %19

17:                                               ; preds = %12
  %18 = load ptr, ptr %3, align 8
  call void @Vec_IntGrow(ptr noundef %18, i32 noundef 16)
  br label %25

19:                                               ; preds = %12
  %20 = load ptr, ptr %3, align 8
  %21 = load ptr, ptr %3, align 8
  %22 = getelementptr inbounds %struct.Vec_Int_t_, ptr %21, i32 0, i32 0
  %23 = load i32, ptr %22, align 8
  %24 = mul nsw i32 2, %23
  call void @Vec_IntGrow(ptr noundef %20, i32 noundef %24)
  br label %25

25:                                               ; preds = %19, %17
  br label %26

26:                                               ; preds = %25, %2
  %27 = load i32, ptr %4, align 4
  %28 = load ptr, ptr %3, align 8
  %29 = getelementptr inbounds %struct.Vec_Int_t_, ptr %28, i32 0, i32 2
  %30 = load ptr, ptr %29, align 8
  %31 = load ptr, ptr %3, align 8
  %32 = getelementptr inbounds %struct.Vec_Int_t_, ptr %31, i32 0, i32 1
  %33 = load i32, ptr %32, align 4
  %34 = add nsw i32 %33, 1
  store i32 %34, ptr %32, align 4
  %35 = sext i32 %33 to i64
  %36 = getelementptr inbounds i32, ptr %30, i64 %35
  store i32 %27, ptr %36, align 4
  ret void
}

; Function Attrs: nounwind uwtable
define internal i32 @Gia_ObjId(ptr noundef %0, ptr noundef %1) #0 {
  %3 = alloca ptr, align 8
  %4 = alloca ptr, align 8
  store ptr %0, ptr %3, align 8
  store ptr %1, ptr %4, align 8
  %5 = load ptr, ptr %4, align 8
  %6 = load ptr, ptr %3, align 8
  %7 = getelementptr inbounds %struct.Gia_Man_t_, ptr %6, i32 0, i32 6
  %8 = load ptr, ptr %7, align 8
  %9 = ptrtoint ptr %5 to i64
  %10 = ptrtoint ptr %8 to i64
  %11 = sub i64 %9, %10
  %12 = sdiv exact i64 %11, 12
  %13 = trunc i64 %12 to i32
  ret i32 %13
}

; Function Attrs: nounwind uwtable
define internal i32 @Vec_IntSize(ptr noundef %0) #0 {
  %2 = alloca ptr, align 8
  store ptr %0, ptr %2, align 8
  %3 = load ptr, ptr %2, align 8
  %4 = getelementptr inbounds %struct.Vec_Int_t_, ptr %3, i32 0, i32 1
  %5 = load i32, ptr %4, align 4
  ret i32 %5
}

; Function Attrs: nounwind uwtable
define internal i32 @Gia_ManAppendCi(ptr noundef %0) #0 {
  %2 = alloca ptr, align 8
  %3 = alloca ptr, align 8
  store ptr %0, ptr %2, align 8
  %4 = load ptr, ptr %2, align 8
  %5 = call ptr @Gia_ManAppendObj(ptr noundef %4)
  store ptr %5, ptr %3, align 8
  %6 = load ptr, ptr %3, align 8
  %7 = load i64, ptr %6, align 4
  %8 = and i64 %7, -2147483649
  %9 = or i64 %8, 2147483648
  store i64 %9, ptr %6, align 4
  %10 = load ptr, ptr %3, align 8
  %11 = load i64, ptr %10, align 4
  %12 = and i64 %11, -536870912
  %13 = or i64 %12, 536870911
  store i64 %13, ptr %10, align 4
  %14 = load ptr, ptr %2, align 8
  %15 = getelementptr inbounds %struct.Gia_Man_t_, ptr %14, i32 0, i32 11
  %16 = load ptr, ptr %15, align 8
  %17 = call i32 @Vec_IntSize(ptr noundef %16)
  %18 = load ptr, ptr %3, align 8
  %19 = zext i32 %17 to i64
  %20 = load i64, ptr %18, align 4
  %21 = and i64 %19, 536870911
  %22 = shl i64 %21, 32
  %23 = and i64 %20, -2305843004918726657
  %24 = or i64 %23, %22
  store i64 %24, ptr %18, align 4
  %25 = load ptr, ptr %2, align 8
  %26 = getelementptr inbounds %struct.Gia_Man_t_, ptr %25, i32 0, i32 11
  %27 = load ptr, ptr %26, align 8
  %28 = load ptr, ptr %2, align 8
  %29 = load ptr, ptr %3, align 8
  %30 = call i32 @Gia_ObjId(ptr noundef %28, ptr noundef %29)
  call void @Vec_IntPush(ptr noundef %27, i32 noundef %30)
  %31 = load ptr, ptr %2, align 8
  %32 = load ptr, ptr %3, align 8
  %33 = call i32 @Gia_ObjId(ptr noundef %31, ptr noundef %32)
  %34 = shl i32 %33, 1
  ret i32 %34
}